; Function Attrs: null_pointer_is_valid sspstrong uwtable
define internal fastcc void @dissect_conf_reply(ptr noundef %0, i32 noundef range(i32 16, 21) %1, ptr noundef %2) unnamed_addr #0 {
  %4 = load i32, ptr @hf_num_reported_ifs, align 4
  %5 = tail call ptr @proto_tree_add_item(ptr noundef %2, i32 noundef %4, ptr noundef %0, i32 noundef %1, i32 noundef 4, i32 noundef 0)
  %6 = add nuw nsw i32 %1, 4
  %7 = load i32, ptr @hf_ethernet_add, align 4
  %8 = tail call ptr @proto_tree_add_item(ptr noundef %2, i32 noundef %7, ptr noundef %0, i32 noundef %6, i32 noundef 6, i32 noundef 0)
  %9 = add nuw nsw i32 %1, 10
  %10 = load i32, ptr @hf_is_if_trusted, align 4
  %11 = tail call ptr @proto_tree_add_item(ptr noundef %2, i32 noundef %10, ptr noundef %0, i32 noundef %9, i32 noundef 2, i32 noundef 0)
  %12 = add nuw nsw i32 %1, 12
  %13 = load i32, ptr @hf_ip, align 4
  %14 = tail call ptr @proto_tree_add_item(ptr noundef %2, i32 noundef %13, ptr noundef %0, i32 noundef %12, i32 noundef 4, i32 noundef 0)
  ret void
}